; Function Attrs: mustprogress nounwind uwtable
define hidden void @_ZN4cvc58internal6theory7strings11EagerSolverD2Ev(ptr noundef nonnull align 8 dereferenceable(80) %this) unnamed_addr #4 align 2 personality ptr @__gxx_personality_v0 {
entry:
  store ptr getelementptr inbounds ({ [4 x ptr] }, ptr @_ZTVN4cvc58internal6theory7strings11EagerSolverE, i64 0, i32 0, i64 2), ptr %this, align 8
  %d_rent = getelementptr inbounds i8, ptr %this, i64 48
  tail call void @_ZN4cvc58internal6theory7strings12RegExpEntailD2Ev(ptr noundef nonnull align 8 dereferenceable(32) %d_rent) #12
  %d_zero.i = getelementptr inbounds i8, ptr %this, i64 40
  %0 = load ptr, ptr %d_zero.i, align 8
  %bf.load.i.i.i = load i64, ptr %0, align 8
  %1 = and i64 %bf.load.i.i.i, 1152920405095219200
  %cmp.not.i.i.i = icmp eq i64 %1, 1152920405095219200
  br i1 %cmp.not.i.i.i, label %_ZN4cvc58internal6theory7strings11ArithEntailD2Ev.exit, label %if.then.i.i.i

if.then.i.i.i:                                    ; preds = %entry
  %bf.value.i.i.i = add i64 %bf.load.i.i.i, 1152920405095219200
  %bf.shl.i.i.i = and i64 %bf.value.i.i.i, 1152920405095219200
  %bf.clear7.i.i.i = and i64 %bf.load.i.i.i, -1152920405095219201
  %bf.set.i.i.i = or disjoint i64 %bf.shl.i.i.i, %bf.clear7.i.i.i
  store i64 %bf.set.i.i.i, ptr %0, align 8
  %cmp12.i.i.i = icmp eq i64 %bf.shl.i.i.i, 0
  br i1 %cmp12.i.i.i, label %if.then13.i.i.i, label %_ZN4cvc58internal6theory7strings11ArithEntailD2Ev.exit

if.then13.i.i.i:                                  ; preds = %if.then.i.i.i
  invoke void @_ZN4cvc58internal4expr9NodeValue15markForDeletionEv(ptr noundef nonnull align 8 dereferenceable(16) %0)
          to label %_ZN4cvc58internal6theory7strings11ArithEntailD2Ev.exit unwind label %terminate.lpad.i.i

terminate.lpad.i.i:                               ; preds = %if.then13.i.i.i
  %2 = landingpad { ptr, i32 }
          catch ptr null
  %3 = extractvalue { ptr, i32 } %2, 0
  tail call void @__clang_call_terminate(ptr %3) #13
  unreachable

_ZN4cvc58internal6theory7strings11ArithEntailD2Ev.exit: ; preds = %entry, %if.then.i.i.i, %if.then13.i.i.i
  ret void
}